target datalayout = "e-m:e-p270:32:32-p271:32:32-p272:64:64-i64:64-i128:128-f80:128-n8:16:32:64-S128"
target triple = "x86_64-pc-linux-gnu"

%struct.AVFilterContext = type { ptr, ptr, ptr, ptr, ptr, i32, ptr, ptr, i32, ptr, ptr, i32, i32, ptr, ptr, ptr, ptr, i32, ptr, i32, i32 }
%struct.FFTFILTContext = type { ptr, i32, i32, i32, i32, [4 x i32], [4 x i32], [32 x [4 x ptr]], [32 x [4 x ptr]], [32 x [4 x ptr]], [32 x [4 x ptr]], ptr, ptr, ptr, ptr, [4 x i32], [4 x i32], [4 x i64], [4 x i64], [4 x i64], [4 x i64], [4 x ptr], [4 x ptr], [4 x ptr], [4 x ptr], [4 x i32], [4 x ptr], [4 x ptr], [4 x ptr], ptr, ptr }

@initialize.p = internal global [3 x ptr] [ptr @weight_Y, ptr @weight_U, ptr @weight_V], align 16
@__const.initialize.func2_names = private unnamed_addr constant [4 x ptr] [ptr @.str.10, ptr @.str.13, ptr @.str.15, ptr null], align 16
@var_names = internal constant [8 x ptr] [ptr @.str.24, ptr @.str.25, ptr @.str.26, ptr @.str.27, ptr @.str.28, ptr @.str.29, ptr @.str.30, ptr null], align 16

; Function Attrs: cold nounwind optsize uwtable
define internal i32 @initialize(ptr noundef %0) #0 {
  %2 = alloca ptr, align 8
  %3 = alloca ptr, align 8
  %4 = alloca i32, align 4
  %5 = alloca i32, align 4
  %6 = alloca [4 x ptr], align 16
  %7 = alloca [5 x ptr], align 16
  %8 = alloca i32, align 4
  store ptr %0, ptr %2, align 8, !tbaa !4
  call void @llvm.lifetime.start.p0(i64 8, ptr %3) #10
  %9 = load ptr, ptr %2, align 8, !tbaa !4
  %10 = getelementptr inbounds nuw %struct.AVFilterContext, ptr %9, i32 0, i32 9
  %11 = load ptr, ptr %10, align 8, !tbaa !9
  store ptr %11, ptr %3, align 8, !tbaa !22
  call void @llvm.lifetime.start.p0(i64 4, ptr %4) #10
  store i32 0, ptr %4, align 4, !tbaa !24
  call void @llvm.lifetime.start.p0(i64 4, ptr %5) #10
  %12 = load ptr, ptr %3, align 8, !tbaa !22
  %13 = getelementptr inbounds nuw %struct.FFTFILTContext, ptr %12, i32 0, i32 25
  %14 = getelementptr inbounds [4 x i32], ptr %13, i64 0, i64 1
  %15 = load i32, ptr %14, align 4, !tbaa !24
  %16 = icmp ne i32 %15, 0
  br i1 %16, label %38, label %17

17:                                               ; preds = %1
  %18 = load ptr, ptr %3, align 8, !tbaa !22
  %19 = getelementptr inbounds nuw %struct.FFTFILTContext, ptr %18, i32 0, i32 25
  %20 = getelementptr inbounds [4 x i32], ptr %19, i64 0, i64 2
  %21 = load i32, ptr %20, align 8, !tbaa !24
  %22 = icmp ne i32 %21, 0
  br i1 %22, label %38, label %23

23:                                               ; preds = %17
  %24 = load ptr, ptr %3, align 8, !tbaa !22
  %25 = getelementptr inbounds nuw %struct.FFTFILTContext, ptr %24, i32 0, i32 25
  %26 = getelementptr inbounds [4 x i32], ptr %25, i64 0, i64 0
  %27 = load i32, ptr %26, align 8, !tbaa !24
  %28 = load ptr, ptr %3, align 8, !tbaa !22
  %29 = getelementptr inbounds nuw %struct.FFTFILTContext, ptr %28, i32 0, i32 25
  %30 = getelementptr inbounds [4 x i32], ptr %29, i64 0, i64 1
  store i32 %27, ptr %30, align 4, !tbaa !24
  %31 = load ptr, ptr %3, align 8, !tbaa !22
  %32 = getelementptr inbounds nuw %struct.FFTFILTContext, ptr %31, i32 0, i32 25
  %33 = getelementptr inbounds [4 x i32], ptr %32, i64 0, i64 0
  %34 = load i32, ptr %33, align 8, !tbaa !24
  %35 = load ptr, ptr %3, align 8, !tbaa !22
  %36 = getelementptr inbounds nuw %struct.FFTFILTContext, ptr %35, i32 0, i32 25
  %37 = getelementptr inbounds [4 x i32], ptr %36, i64 0, i64 2
  store i32 %34, ptr %37, align 8, !tbaa !24
  br label %67

38:                                               ; preds = %17, %1
  %39 = load ptr, ptr %3, align 8, !tbaa !22
  %40 = getelementptr inbounds nuw %struct.FFTFILTContext, ptr %39, i32 0, i32 25
  %41 = getelementptr inbounds [4 x i32], ptr %40, i64 0, i64 1
  %42 = load i32, ptr %41, align 4, !tbaa !24
  %43 = icmp ne i32 %42, 0
  br i1 %43, label %52, label %44

44:                                               ; preds = %38
  %45 = load ptr, ptr %3, align 8, !tbaa !22
  %46 = getelementptr inbounds nuw %struct.FFTFILTContext, ptr %45, i32 0, i32 25
  %47 = getelementptr inbounds [4 x i32], ptr %46, i64 0, i64 2
  %48 = load i32, ptr %47, align 8, !tbaa !24
  %49 = load ptr, ptr %3, align 8, !tbaa !22
  %50 = getelementptr inbounds nuw %struct.FFTFILTContext, ptr %49, i32 0, i32 25
  %51 = getelementptr inbounds [4 x i32], ptr %50, i64 0, i64 1
  store i32 %48, ptr %51, align 4, !tbaa !24
  br label %52

52:                                               ; preds = %44, %38
  %53 = load ptr, ptr %3, align 8, !tbaa !22
  %54 = getelementptr inbounds nuw %struct.FFTFILTContext, ptr %53, i32 0, i32 25
  %55 = getelementptr inbounds [4 x i32], ptr %54, i64 0, i64 2
  %56 = load i32, ptr %55, align 8, !tbaa !24
  %57 = icmp ne i32 %56, 0
  br i1 %57, label %66, label %58

58:                                               ; preds = %52
  %59 = load ptr, ptr %3, align 8, !tbaa !22
  %60 = getelementptr inbounds nuw %struct.FFTFILTContext, ptr %59, i32 0, i32 25
  %61 = getelementptr inbounds [4 x i32], ptr %60, i64 0, i64 1
  %62 = load i32, ptr %61, align 4, !tbaa !24
  %63 = load ptr, ptr %3, align 8, !tbaa !22
  %64 = getelementptr inbounds nuw %struct.FFTFILTContext, ptr %63, i32 0, i32 25
  %65 = getelementptr inbounds [4 x i32], ptr %64, i64 0, i64 2
  store i32 %62, ptr %65, align 8, !tbaa !24
  br label %66

66:                                               ; preds = %58, %52
  br label %67

67:                                               ; preds = %66, %23
  %68 = load ptr, ptr %3, align 8, !tbaa !22
  %69 = getelementptr inbounds nuw %struct.FFTFILTContext, ptr %68, i32 0, i32 26
  %70 = getelementptr inbounds [4 x ptr], ptr %69, i64 0, i64 1
  %71 = load ptr, ptr %70, align 8, !tbaa !25
  %72 = icmp ne ptr %71, null
  br i1 %72, label %96, label %73

73:                                               ; preds = %67
  %74 = load ptr, ptr %3, align 8, !tbaa !22
  %75 = getelementptr inbounds nuw %struct.FFTFILTContext, ptr %74, i32 0, i32 26
  %76 = getelementptr inbounds [4 x ptr], ptr %75, i64 0, i64 2
  %77 = load ptr, ptr %76, align 8, !tbaa !25
  %78 = icmp ne ptr %77, null
  br i1 %78, label %96, label %79

79:                                               ; preds = %73
  %80 = load ptr, ptr %3, align 8, !tbaa !22
  %81 = getelementptr inbounds nuw %struct.FFTFILTContext, ptr %80, i32 0, i32 26
  %82 = getelementptr inbounds [4 x ptr], ptr %81, i64 0, i64 0
  %83 = load ptr, ptr %82, align 8, !tbaa !25
  %84 = call noalias ptr @av_strdup(ptr noundef %83)
  %85 = load ptr, ptr %3, align 8, !tbaa !22
  %86 = getelementptr inbounds nuw %struct.FFTFILTContext, ptr %85, i32 0, i32 26
  %87 = getelementptr inbounds [4 x ptr], ptr %86, i64 0, i64 1
  store ptr %84, ptr %87, align 8, !tbaa !25
  %88 = load ptr, ptr %3, align 8, !tbaa !22
  %89 = getelementptr inbounds nuw %struct.FFTFILTContext, ptr %88, i32 0, i32 26
  %90 = getelementptr inbounds [4 x ptr], ptr %89, i64 0, i64 0
  %91 = load ptr, ptr %90, align 8, !tbaa !25
  %92 = call noalias ptr @av_strdup(ptr noundef %91)
  %93 = load ptr, ptr %3, align 8, !tbaa !22
  %94 = getelementptr inbounds nuw %struct.FFTFILTContext, ptr %93, i32 0, i32 26
  %95 = getelementptr inbounds [4 x ptr], ptr %94, i64 0, i64 2
  store ptr %92, ptr %95, align 8, !tbaa !25
  br label %127

96:                                               ; preds = %73, %67
  %97 = load ptr, ptr %3, align 8, !tbaa !22
  %98 = getelementptr inbounds nuw %struct.FFTFILTContext, ptr %97, i32 0, i32 26
  %99 = getelementptr inbounds [4 x ptr], ptr %98, i64 0, i64 1
  %100 = load ptr, ptr %99, align 8, !tbaa !25
  %101 = icmp ne ptr %100, null
  br i1 %101, label %111, label %102

102:                                              ; preds = %96
  %103 = load ptr, ptr %3, align 8, !tbaa !22
  %104 = getelementptr inbounds nuw %struct.FFTFILTContext, ptr %103, i32 0, i32 26
  %105 = getelementptr inbounds [4 x ptr], ptr %104, i64 0, i64 2
  %106 = load ptr, ptr %105, align 8, !tbaa !25
  %107 = call noalias ptr @av_strdup(ptr noundef %106)
  %108 = load ptr, ptr %3, align 8, !tbaa !22
  %109 = getelementptr inbounds nuw %struct.FFTFILTContext, ptr %108, i32 0, i32 26
  %110 = getelementptr inbounds [4 x ptr], ptr %109, i64 0, i64 1
  store ptr %107, ptr %110, align 8, !tbaa !25
  br label %111

111:                                              ; preds = %102, %96
  %112 = load ptr, ptr %3, align 8, !tbaa !22
  %113 = getelementptr inbounds nuw %struct.FFTFILTContext, ptr %112, i32 0, i32 26
  %114 = getelementptr inbounds [4 x ptr], ptr %113, i64 0, i64 2
  %115 = load ptr, ptr %114, align 8, !tbaa !25
  %116 = icmp ne ptr %115, null
  br i1 %116, label %126, label %117

117:                                              ; preds = %111
  %118 = load ptr, ptr %3, align 8, !tbaa !22
  %119 = getelementptr inbounds nuw %struct.FFTFILTContext, ptr %118, i32 0, i32 26
  %120 = getelementptr inbounds [4 x ptr], ptr %119, i64 0, i64 1
  %121 = load ptr, ptr %120, align 8, !tbaa !25
  %122 = call noalias ptr @av_strdup(ptr noundef %121)
  %123 = load ptr, ptr %3, align 8, !tbaa !22
  %124 = getelementptr inbounds nuw %struct.FFTFILTContext, ptr %123, i32 0, i32 26
  %125 = getelementptr inbounds [4 x ptr], ptr %124, i64 0, i64 2
  store ptr %122, ptr %125, align 8, !tbaa !25
  br label %126

126:                                              ; preds = %117, %111
  br label %127

127:                                              ; preds = %126, %79
  store i32 0, ptr %5, align 4, !tbaa !24
  br label %128

128:                                              ; preds = %162, %127
  %129 = load i32, ptr %5, align 4, !tbaa !24
  %130 = icmp slt i32 %129, 3
  br i1 %130, label %131, label %165

131:                                              ; preds = %128
  call void @llvm.lifetime.start.p0(i64 32, ptr %6) #10
  call void @llvm.memcpy.p0.p0.i64(ptr align 16 %6, ptr align 16 @__const.initialize.func2_names, i64 32, i1 false)
  call void @llvm.lifetime.start.p0(i64 40, ptr %7) #10
  store ptr @weight_Y, ptr %7, align 8, !tbaa !26
  %132 = getelementptr inbounds ptr, ptr %7, i64 1
  store ptr @weight_U, ptr %132, align 8, !tbaa !26
  %133 = getelementptr inbounds ptr, ptr %7, i64 2
  store ptr @weight_V, ptr %133, align 8, !tbaa !26
  %134 = getelementptr inbounds ptr, ptr %7, i64 3
  %135 = load i32, ptr %5, align 4, !tbaa !24
  %136 = sext i32 %135 to i64
  %137 = getelementptr inbounds [3 x ptr], ptr @initialize.p, i64 0, i64 %136
  %138 = load ptr, ptr %137, align 8, !tbaa !26
  store ptr %138, ptr %134, align 8, !tbaa !26
  %139 = getelementptr inbounds ptr, ptr %7, i64 4
  store ptr null, ptr %139, align 8, !tbaa !26
  %140 = load ptr, ptr %3, align 8, !tbaa !22
  %141 = getelementptr inbounds nuw %struct.FFTFILTContext, ptr %140, i32 0, i32 27
  %142 = load i32, ptr %5, align 4, !tbaa !24
  %143 = sext i32 %142 to i64
  %144 = getelementptr inbounds [4 x ptr], ptr %141, i64 0, i64 %143
  %145 = load ptr, ptr %3, align 8, !tbaa !22
  %146 = getelementptr inbounds nuw %struct.FFTFILTContext, ptr %145, i32 0, i32 26
  %147 = load i32, ptr %5, align 4, !tbaa !24
  %148 = sext i32 %147 to i64
  %149 = getelementptr inbounds [4 x ptr], ptr %146, i64 0, i64 %148
  %150 = load ptr, ptr %149, align 8, !tbaa !25
  %151 = getelementptr inbounds [4 x ptr], ptr %6, i64 0, i64 0
  %152 = getelementptr inbounds [5 x ptr], ptr %7, i64 0, i64 0
  %153 = load ptr, ptr %2, align 8, !tbaa !4
  %154 = call i32 @av_expr_parse(ptr noundef %144, ptr noundef %150, ptr noundef @var_names, ptr noundef null, ptr noundef null, ptr noundef %151, ptr noundef %152, i32 noundef 0, ptr noundef %153)
  store i32 %154, ptr %4, align 4, !tbaa !24
  %155 = load i32, ptr %4, align 4, !tbaa !24
  %156 = icmp slt i32 %155, 0
  br i1 %156, label %157, label %158

157:                                              ; preds = %131
  store i32 2, ptr %8, align 4
  br label %159

158:                                              ; preds = %131
  store i32 0, ptr %8, align 4
  br label %159

159:                                              ; preds = %158, %157
  call void @llvm.lifetime.end.p0(i64 40, ptr %7) #10
  call void @llvm.lifetime.end.p0(i64 32, ptr %6) #10
  %160 = load i32, ptr %8, align 4
  switch i32 %160, label %167 [
    i32 0, label %161
    i32 2, label %165
  ]

161:                                              ; preds = %159
  br label %162

162:                                              ; preds = %161
  %163 = load i32, ptr %5, align 4, !tbaa !24
  %164 = add nsw i32 %163, 1
  store i32 %164, ptr %5, align 4, !tbaa !24
  br label %128, !llvm.loop !27

165:                                              ; preds = %159, %128
  %166 = load i32, ptr %4, align 4, !tbaa !24
  store i32 1, ptr %8, align 4
  call void @llvm.lifetime.end.p0(i64 4, ptr %5) #10
  call void @llvm.lifetime.end.p0(i64 4, ptr %4) #10
  call void @llvm.lifetime.end.p0(i64 8, ptr %3) #10
  ret i32 %166

167:                                              ; preds = %159
  unreachable
}