; Function Attrs: cold nounwind optsize uwtable
define internal i32 @initialize(ptr noundef %0) #0 {
  %2 = alloca [4 x ptr], align 16
  %3 = alloca [5 x ptr], align 16
  %4 = getelementptr inbounds nuw i8, ptr %0, i64 72
  %5 = load ptr, ptr %4, align 8, !tbaa !4
  %6 = getelementptr inbounds nuw i8, ptr %5, i64 4472
  %7 = getelementptr inbounds nuw i8, ptr %5, i64 4476
  %8 = load i32, ptr %7, align 4, !tbaa !20
  %.not = icmp eq i32 %8, 0
  %9 = getelementptr inbounds nuw i8, ptr %5, i64 4480
  %10 = load i32, ptr %9, align 8, !tbaa !20
  %.not37 = icmp eq i32 %10, 0
  br i1 %.not, label %11, label %14

11:                                               ; preds = %1
  br i1 %.not37, label %12, label %.thread

12:                                               ; preds = %11
  %13 = load i32, ptr %6, align 8, !tbaa !20
  store i32 %13, ptr %7, align 4, !tbaa !20
  store i32 %13, ptr %9, align 8, !tbaa !20
  br label %17

.thread:                                          ; preds = %11
  store i32 %10, ptr %7, align 4, !tbaa !20
  br label %17

14:                                               ; preds = %1
  br i1 %.not37, label %15, label %17

15:                                               ; preds = %14
  %16 = getelementptr inbounds nuw i8, ptr %5, i64 4480
  store i32 %8, ptr %16, align 8, !tbaa !20
  br label %17

17:                                               ; preds = %.thread, %14, %15, %12
  %18 = getelementptr inbounds nuw i8, ptr %5, i64 4488
  %19 = getelementptr inbounds nuw i8, ptr %5, i64 4496
  %20 = load ptr, ptr %19, align 8, !tbaa !21
  %.not40 = icmp eq ptr %20, null
  br i1 %.not40, label %21, label %31

21:                                               ; preds = %17
  %22 = getelementptr inbounds nuw i8, ptr %5, i64 4504
  %23 = load ptr, ptr %22, align 8, !tbaa !21
  %.not41 = icmp eq ptr %23, null
  br i1 %.not41, label %24, label %29

24:                                               ; preds = %21
  %25 = load ptr, ptr %18, align 8, !tbaa !21
  %26 = tail call noalias ptr @av_strdup(ptr noundef %25) #10
  store ptr %26, ptr %19, align 8, !tbaa !21
  %27 = load ptr, ptr %18, align 8, !tbaa !21
  %28 = tail call noalias ptr @av_strdup(ptr noundef %27) #10
  store ptr %28, ptr %22, align 8, !tbaa !21
  br label %37

29:                                               ; preds = %21
  %30 = tail call noalias ptr @av_strdup(ptr noundef nonnull %23) #10
  store ptr %30, ptr %19, align 8, !tbaa !21
  br label %31

31:                                               ; preds = %17, %29
  %32 = phi ptr [ %20, %17 ], [ %30, %29 ]
  %33 = getelementptr inbounds nuw i8, ptr %5, i64 4504
  %34 = load ptr, ptr %33, align 8, !tbaa !21
  %.not43 = icmp eq ptr %34, null
  br i1 %.not43, label %35, label %37

35:                                               ; preds = %31
  %36 = tail call noalias ptr @av_strdup(ptr noundef %32) #10
  store ptr %36, ptr %33, align 8, !tbaa !21
  br label %37

37:                                               ; preds = %31, %35, %24
  %38 = getelementptr inbounds nuw i8, ptr %3, i64 8
  %39 = getelementptr inbounds nuw i8, ptr %3, i64 16
  %40 = getelementptr inbounds nuw i8, ptr %3, i64 24
  %41 = getelementptr inbounds nuw i8, ptr %3, i64 32
  %42 = getelementptr inbounds nuw i8, ptr %5, i64 4520
  br label %43

43:                                               ; preds = %43, %37
  %indvars.iv = phi i64 [ 0, %37 ], [ %indvars.iv.next, %43 ]
  call void @llvm.lifetime.start.p0(i64 32, ptr nonnull %2) #10
  call void @llvm.memcpy.p0.p0.i64(ptr noundef nonnull align 16 dereferenceable(32) %2, ptr noundef nonnull align 16 dereferenceable(32) @__const.initialize.func2_names, i64 32, i1 false)
  call void @llvm.lifetime.start.p0(i64 40, ptr nonnull %3) #10
  store ptr @weight_Y, ptr %3, align 16, !tbaa !22
  store ptr @weight_U, ptr %38, align 8, !tbaa !22
  store ptr @weight_V, ptr %39, align 16, !tbaa !22
  %44 = getelementptr inbounds nuw [3 x ptr], ptr @initialize.p, i64 0, i64 %indvars.iv
  %45 = load ptr, ptr %44, align 8, !tbaa !22
  store ptr %45, ptr %40, align 8, !tbaa !22
  store ptr null, ptr %41, align 16, !tbaa !22
  %46 = getelementptr inbounds nuw [4 x ptr], ptr %42, i64 0, i64 %indvars.iv
  %47 = getelementptr inbounds nuw [4 x ptr], ptr %18, i64 0, i64 %indvars.iv
  %48 = load ptr, ptr %47, align 8, !tbaa !21
  %49 = call i32 @av_expr_parse(ptr noundef nonnull %46, ptr noundef %48, ptr noundef nonnull @var_names, ptr noundef null, ptr noundef null, ptr noundef nonnull %2, ptr noundef nonnull %3, i32 noundef 0, ptr noundef %0) #10
  %50 = icmp slt i32 %49, 0
  call void @llvm.lifetime.end.p0(i64 40, ptr nonnull %3) #10
  call void @llvm.lifetime.end.p0(i64 32, ptr nonnull %2) #10
  %indvars.iv.next = add nuw nsw i64 %indvars.iv, 1
  %exitcond.not = icmp eq i64 %indvars.iv.next, 3
  %or.cond = select i1 %50, i1 true, i1 %exitcond.not
  br i1 %or.cond, label %51, label %43, !llvm.loop !23

51:                                               ; preds = %43
  ret i32 %49
}